target datalayout = "e-m:e-p270:32:32-p271:32:32-p272:64:64-i64:64-i128:128-f80:128-n8:16:32:64-S128"
target triple = "x86_64-pc-linux-gnu"

%struct.TestConfig = type <{ i32, i8, i8, i8, i8, %"class.std::__cxx11::basic_string", %"class.std::__cxx11::basic_string", %"class.std::__cxx11::basic_string", %"class.std::__cxx11::basic_string", %"class.std::__cxx11::basic_string", i8, [7 x i8], %"class.std::__cxx11::basic_string", %"class.std::__cxx11::basic_string", i8, [7 x i8], %"class.std::__cxx11::basic_string", i8, i8, i8, i8, i8, i8, i8, i8, %"class.std::__cxx11::basic_string", %"class.std::__cxx11::basic_string", i8, [7 x i8], %"class.std::__cxx11::basic_string", %"class.std::__cxx11::basic_string", %"class.std::__cxx11::basic_string", %"class.std::__cxx11::basic_string", %"class.std::__cxx11::basic_string", i8, i8, i8, [5 x i8], %"class.std::__cxx11::basic_string", %"class.std::__cxx11::basic_string", %"class.std::__cxx11::basic_string", i8, [7 x i8], %"class.std::__cxx11::basic_string", i8, [7 x i8], %"class.std::__cxx11::basic_string", i32, i32, i32, i8, i8, i8, i8, i8, i8, [6 x i8], %"class.std::__cxx11::basic_string", %"class.std::__cxx11::basic_string", %"class.std::__cxx11::basic_string", i8, [3 x i8], i32, %"class.std::__cxx11::basic_string", %"class.std::__cxx11::basic_string", i8, i8, i8, i8, i8, i8, i8, i8, i8, i8, [6 x i8], %"class.std::__cxx11::basic_string", i8, i8, i8, i8, i8, [3 x i8], %"class.std::__cxx11::basic_string", i32, i8, i8, i8, i8, i32, i8, i8, i8, i8, i32, i8, [3 x i8] }>
%"class.std::__cxx11::basic_string" = type { %"struct.std::__cxx11::basic_string<char>::_Alloc_hider", i64, %union.anon }
%"struct.std::__cxx11::basic_string<char>::_Alloc_hider" = type { ptr }
%union.anon = type { i64, [8 x i8] }

@_ZL14g_config_index = internal global i32 0, align 4
@stderr = external global ptr, align 8
@.str.16 = private unnamed_addr constant [33 x i8] c"bad ALPN select callback inputs\0A\00", align 1

; Function Attrs: mustprogress nounwind uwtable
define available_externally noundef ptr @_ZNKSt7__cxx1112basic_stringIcSt11char_traitsIcESaIcEE7_M_dataEv(ptr noundef nonnull align 8 dereferenceable(32) %0) #4 align 2 {
  %2 = alloca ptr, align 8
  store ptr %0, ptr %2, align 8, !tbaa !187
  %3 = load ptr, ptr %2, align 8
  %4 = getelementptr inbounds nuw %"class.std::__cxx11::basic_string", ptr %3, i32 0, i32 0
  %5 = getelementptr inbounds nuw %"struct.std::__cxx11::basic_string<char>::_Alloc_hider", ptr %4, i32 0, i32 0
  %6 = load ptr, ptr %5, align 8, !tbaa !197
  ret ptr %6
}

; Function Attrs: mustprogress nounwind uwtable
define available_externally noundef ptr @_ZNKSt7__cxx1112basic_stringIcSt11char_traitsIcESaIcEE4dataEv(ptr noundef nonnull align 8 dereferenceable(32) %0) #4 align 2 {
  %2 = alloca ptr, align 8
  store ptr %0, ptr %2, align 8, !tbaa !187
  %3 = load ptr, ptr %2, align 8
  %4 = call noundef ptr @_ZNKSt7__cxx1112basic_stringIcSt11char_traitsIcESaIcEE7_M_dataEv(ptr noundef nonnull align 8 dereferenceable(32) %3)
  ret ptr %4
}

; Function Attrs: mustprogress nounwind uwtable
define available_externally noundef i64 @_ZNKSt7__cxx1112basic_stringIcSt11char_traitsIcESaIcEE4sizeEv(ptr noundef nonnull align 8 dereferenceable(32) %0) #4 align 2 {
  %2 = alloca ptr, align 8
  store ptr %0, ptr %2, align 8, !tbaa !187
  %3 = load ptr, ptr %2, align 8
  %4 = getelementptr inbounds nuw %"class.std::__cxx11::basic_string", ptr %3, i32 0, i32 1
  %5 = load i64, ptr %4, align 8, !tbaa !196
  ret i64 %5
}

; Function Attrs: mustprogress nounwind uwtable
define available_externally noundef zeroext i1 @_ZNKSt7__cxx1112basic_stringIcSt11char_traitsIcESaIcEE5emptyEv(ptr noundef nonnull align 8 dereferenceable(32) %0) #4 align 2 {
  %2 = alloca ptr, align 8
  store ptr %0, ptr %2, align 8, !tbaa !187
  %3 = load ptr, ptr %2, align 8
  %4 = call noundef i64 @_ZNKSt7__cxx1112basic_stringIcSt11char_traitsIcESaIcEE4sizeEv(ptr noundef nonnull align 8 dereferenceable(32) %3) #18
  %5 = icmp eq i64 %4, 0
  ret i1 %5
}

; Function Attrs: mustprogress uwtable
define internal noundef ptr @_ZL12GetConfigPtrPK6ssl_st(ptr noundef %0) #6 {
  %2 = alloca ptr, align 8
  store ptr %0, ptr %2, align 8, !tbaa !204
  %3 = load ptr, ptr %2, align 8, !tbaa !204
  %4 = load i32, ptr @_ZL14g_config_index, align 4, !tbaa !6
  %5 = call ptr @SSL_get_ex_data(ptr noundef %3, i32 noundef %4)
  ret ptr %5
}

; Function Attrs: mustprogress uwtable
define internal noundef i32 @_ZL18AlpnSelectCallbackP6ssl_stPPKhPhS2_jPv(ptr noundef %0, ptr noundef %1, ptr noundef %2, ptr noundef %3, i32 noundef %4, ptr noundef %5) #6 {
  %7 = alloca i32, align 4
  %8 = alloca ptr, align 8
  %9 = alloca ptr, align 8
  %10 = alloca ptr, align 8
  %11 = alloca ptr, align 8
  %12 = alloca i32, align 4
  %13 = alloca ptr, align 8
  %14 = alloca ptr, align 8
  %15 = alloca i32, align 4
  store ptr %0, ptr %8, align 8, !tbaa !204
  store ptr %1, ptr %9, align 8, !tbaa !10
  store ptr %2, ptr %10, align 8, !tbaa !13
  store ptr %3, ptr %11, align 8, !tbaa !13
  store i32 %4, ptr %12, align 4, !tbaa !6
  store ptr %5, ptr %13, align 8, !tbaa !25
  call void @llvm.lifetime.start.p0(i64 8, ptr %14) #18
  %16 = load ptr, ptr %8, align 8, !tbaa !204
  %17 = call noundef ptr @_ZL12GetConfigPtrPK6ssl_st(ptr noundef %16)
  store ptr %17, ptr %14, align 8, !tbaa !29
  %18 = load ptr, ptr %14, align 8, !tbaa !29
  %19 = getelementptr inbounds nuw %struct.TestConfig, ptr %18, i32 0, i32 34
  %20 = load i8, ptr %19, align 8, !tbaa !46, !range !23, !noundef !24
  %21 = trunc i8 %20 to i1
  br i1 %21, label %22, label %23

22:                                               ; preds = %6
  store i32 3, ptr %7, align 4
  store i32 1, ptr %15, align 4
  br label %56

23:                                               ; preds = %6
  %24 = load ptr, ptr %14, align 8, !tbaa !29
  %25 = getelementptr inbounds nuw %struct.TestConfig, ptr %24, i32 0, i32 32
  %26 = call noundef zeroext i1 @_ZNKSt7__cxx1112basic_stringIcSt11char_traitsIcESaIcEE5emptyEv(ptr noundef nonnull align 8 dereferenceable(32) %25) #18
  br i1 %26, label %46, label %27

27:                                               ; preds = %23
  %28 = load ptr, ptr %14, align 8, !tbaa !29
  %29 = getelementptr inbounds nuw %struct.TestConfig, ptr %28, i32 0, i32 32
  %30 = call noundef i64 @_ZNKSt7__cxx1112basic_stringIcSt11char_traitsIcESaIcEE4sizeEv(ptr noundef nonnull align 8 dereferenceable(32) %29) #18
  %31 = load i32, ptr %12, align 4, !tbaa !6
  %32 = zext i32 %31 to i64
  %33 = icmp ne i64 %30, %32
  br i1 %33, label %43, label %34

34:                                               ; preds = %27
  %35 = load ptr, ptr %14, align 8, !tbaa !29
  %36 = getelementptr inbounds nuw %struct.TestConfig, ptr %35, i32 0, i32 32
  %37 = call noundef ptr @_ZNKSt7__cxx1112basic_stringIcSt11char_traitsIcESaIcEE4dataEv(ptr noundef nonnull align 8 dereferenceable(32) %36) #18
  %38 = load ptr, ptr %11, align 8, !tbaa !13
  %39 = load i32, ptr %12, align 4, !tbaa !6
  %40 = zext i32 %39 to i64
  %41 = call i32 @memcmp(ptr noundef %37, ptr noundef %38, i64 noundef %40) #23
  %42 = icmp ne i32 %41, 0
  br i1 %42, label %43, label %46

43:                                               ; preds = %34, %27
  %44 = load ptr, ptr @stderr, align 8, !tbaa !15
  %45 = call i32 (ptr, ptr, ...) @fprintf(ptr noundef %44, ptr noundef @.str.16) #18
  call void @exit(i32 noundef 1) #21
  unreachable

46:                                               ; preds = %34, %23
  %47 = load ptr, ptr %14, align 8, !tbaa !29
  %48 = getelementptr inbounds nuw %struct.TestConfig, ptr %47, i32 0, i32 33
  %49 = call noundef ptr @_ZNKSt7__cxx1112basic_stringIcSt11char_traitsIcESaIcEE4dataEv(ptr noundef nonnull align 8 dereferenceable(32) %48) #18
  %50 = load ptr, ptr %9, align 8, !tbaa !10
  store ptr %49, ptr %50, align 8, !tbaa !13
  %51 = load ptr, ptr %14, align 8, !tbaa !29
  %52 = getelementptr inbounds nuw %struct.TestConfig, ptr %51, i32 0, i32 33
  %53 = call noundef i64 @_ZNKSt7__cxx1112basic_stringIcSt11char_traitsIcESaIcEE4sizeEv(ptr noundef nonnull align 8 dereferenceable(32) %52) #18
  %54 = trunc i64 %53 to i8
  %55 = load ptr, ptr %10, align 8, !tbaa !13
  store i8 %54, ptr %55, align 1, !tbaa !146
  store i32 0, ptr %7, align 4
  store i32 1, ptr %15, align 4
  br label %56

56:                                               ; preds = %46, %22
  call void @llvm.lifetime.end.p0(i64 8, ptr %14) #18
  %57 = load i32, ptr %7, align 4
  ret i32 %57
}