; Function Attrs: mustprogress uwtable
define internal noundef range(i32 0, 4) i32 @_ZL18AlpnSelectCallbackP6ssl_stPPKhPhS2_jPv(ptr noundef %0, ptr noundef writeonly captures(none) %1, ptr noundef writeonly captures(none) %2, ptr noundef readonly captures(none) %3, i32 noundef %4, ptr readnone captures(none) %5) #10 {
  %7 = load i32, ptr @_ZL14g_config_index, align 4, !tbaa !6
  %8 = tail call noundef ptr @SSL_get_ex_data(ptr noundef %0, i32 noundef %7)
  %9 = getelementptr inbounds nuw i8, ptr %8, i64 520
  %10 = load i8, ptr %9, align 8, !tbaa !23, !range !39, !noundef !40
  %11 = trunc nuw i8 %10 to i1
  br i1 %11, label %30, label %12

12:                                               ; preds = %6
  %13 = getelementptr inbounds nuw i8, ptr %8, i64 456
  %14 = getelementptr inbounds nuw i8, ptr %8, i64 464
  %15 = load i64, ptr %14, align 8, !tbaa !14
  %16 = icmp eq i64 %15, 0
  br i1 %16, label %24, label %17

17:                                               ; preds = %12
  %18 = zext i32 %4 to i64
  %.not = icmp eq i64 %15, %18
  br i1 %.not, label %19, label %21

19:                                               ; preds = %17
  %20 = load ptr, ptr %13, align 8, !tbaa !45
  %bcmp = tail call i32 @bcmp(ptr %20, ptr %3, i64 %15)
  %.not13 = icmp eq i32 %bcmp, 0
  br i1 %.not13, label %24, label %21

21:                                               ; preds = %19, %17
  %22 = load ptr, ptr @stderr, align 8, !tbaa !33
  %23 = tail call i64 @fwrite(ptr nonnull @.str.16, i64 32, i64 1, ptr %22) #32
  tail call void @exit(i32 noundef 1) #34
  unreachable

24:                                               ; preds = %19, %12
  %25 = getelementptr inbounds nuw i8, ptr %8, i64 488
  %26 = load ptr, ptr %25, align 8, !tbaa !45
  store ptr %26, ptr %1, align 8, !tbaa !32
  %27 = getelementptr inbounds nuw i8, ptr %8, i64 496
  %28 = load i64, ptr %27, align 8, !tbaa !14
  %29 = trunc i64 %28 to i8
  store i8 %29, ptr %2, align 1, !tbaa !17
  br label %30

30:                                               ; preds = %6, %24
  %.0 = phi i32 [ 0, %24 ], [ 3, %6 ]
  ret i32 %.0
}